target datalayout = "e-m:e-p270:32:32-p271:32:32-p272:64:64-i64:64-i128:128-f80:128-n8:16:32:64-S128"
target triple = "x86_64-pc-linux-gnu"

%struct.stbtt__csctx = type { i32, i32, float, float, float, float, i32, i32, i32, i32, ptr, i32 }

; Function Attrs: nounwind uwtable
define void @stbtt__track_vertex(ptr noundef %0, i32 noundef %1, i32 noundef %2) #0 {
  %4 = alloca ptr, align 8
  %5 = alloca i32, align 4
  %6 = alloca i32, align 4
  store ptr %0, ptr %4, align 8, !tbaa !3
  store i32 %1, ptr %5, align 4, !tbaa !14
  store i32 %2, ptr %6, align 4, !tbaa !14
  %7 = load i32, ptr %5, align 4, !tbaa !14
  %8 = load ptr, ptr %4, align 8, !tbaa !3
  %9 = getelementptr inbounds nuw %struct.stbtt__csctx, ptr %8, i32 0, i32 7
  %10 = load i32, ptr %9, align 4, !tbaa !60
  %11 = icmp sgt i32 %7, %10
  br i1 %11, label %17, label %12

12:                                               ; preds = %3
  %13 = load ptr, ptr %4, align 8, !tbaa !3
  %14 = getelementptr inbounds nuw %struct.stbtt__csctx, ptr %13, i32 0, i32 1
  %15 = load i32, ptr %14, align 4, !tbaa !70
  %16 = icmp ne i32 %15, 0
  br i1 %16, label %21, label %17

17:                                               ; preds = %12, %3
  %18 = load i32, ptr %5, align 4, !tbaa !14
  %19 = load ptr, ptr %4, align 8, !tbaa !3
  %20 = getelementptr inbounds nuw %struct.stbtt__csctx, ptr %19, i32 0, i32 7
  store i32 %18, ptr %20, align 4, !tbaa !60
  br label %21

21:                                               ; preds = %17, %12
  %22 = load i32, ptr %6, align 4, !tbaa !14
  %23 = load ptr, ptr %4, align 8, !tbaa !3
  %24 = getelementptr inbounds nuw %struct.stbtt__csctx, ptr %23, i32 0, i32 9
  %25 = load i32, ptr %24, align 4, !tbaa !61
  %26 = icmp sgt i32 %22, %25
  br i1 %26, label %32, label %27

27:                                               ; preds = %21
  %28 = load ptr, ptr %4, align 8, !tbaa !3
  %29 = getelementptr inbounds nuw %struct.stbtt__csctx, ptr %28, i32 0, i32 1
  %30 = load i32, ptr %29, align 4, !tbaa !70
  %31 = icmp ne i32 %30, 0
  br i1 %31, label %36, label %32

32:                                               ; preds = %27, %21
  %33 = load i32, ptr %6, align 4, !tbaa !14
  %34 = load ptr, ptr %4, align 8, !tbaa !3
  %35 = getelementptr inbounds nuw %struct.stbtt__csctx, ptr %34, i32 0, i32 9
  store i32 %33, ptr %35, align 4, !tbaa !61
  br label %36

36:                                               ; preds = %32, %27
  %37 = load i32, ptr %5, align 4, !tbaa !14
  %38 = load ptr, ptr %4, align 8, !tbaa !3
  %39 = getelementptr inbounds nuw %struct.stbtt__csctx, ptr %38, i32 0, i32 6
  %40 = load i32, ptr %39, align 8, !tbaa !56
  %41 = icmp slt i32 %37, %40
  br i1 %41, label %47, label %42

42:                                               ; preds = %36
  %43 = load ptr, ptr %4, align 8, !tbaa !3
  %44 = getelementptr inbounds nuw %struct.stbtt__csctx, ptr %43, i32 0, i32 1
  %45 = load i32, ptr %44, align 4, !tbaa !70
  %46 = icmp ne i32 %45, 0
  br i1 %46, label %51, label %47

47:                                               ; preds = %42, %36
  %48 = load i32, ptr %5, align 4, !tbaa !14
  %49 = load ptr, ptr %4, align 8, !tbaa !3
  %50 = getelementptr inbounds nuw %struct.stbtt__csctx, ptr %49, i32 0, i32 6
  store i32 %48, ptr %50, align 8, !tbaa !56
  br label %51

51:                                               ; preds = %47, %42
  %52 = load i32, ptr %6, align 4, !tbaa !14
  %53 = load ptr, ptr %4, align 8, !tbaa !3
  %54 = getelementptr inbounds nuw %struct.stbtt__csctx, ptr %53, i32 0, i32 8
  %55 = load i32, ptr %54, align 8, !tbaa !59
  %56 = icmp slt i32 %52, %55
  br i1 %56, label %62, label %57

57:                                               ; preds = %51
  %58 = load ptr, ptr %4, align 8, !tbaa !3
  %59 = getelementptr inbounds nuw %struct.stbtt__csctx, ptr %58, i32 0, i32 1
  %60 = load i32, ptr %59, align 4, !tbaa !70
  %61 = icmp ne i32 %60, 0
  br i1 %61, label %66, label %62

62:                                               ; preds = %57, %51
  %63 = load i32, ptr %6, align 4, !tbaa !14
  %64 = load ptr, ptr %4, align 8, !tbaa !3
  %65 = getelementptr inbounds nuw %struct.stbtt__csctx, ptr %64, i32 0, i32 8
  store i32 %63, ptr %65, align 8, !tbaa !59
  br label %66

66:                                               ; preds = %62, %57
  %67 = load ptr, ptr %4, align 8, !tbaa !3
  %68 = getelementptr inbounds nuw %struct.stbtt__csctx, ptr %67, i32 0, i32 1
  store i32 1, ptr %68, align 4, !tbaa !70
  ret void
}