; Function Attrs: mustprogress nofree norecurse nosync nounwind willreturn memory(argmem: readwrite) uwtable
define void @stbtt__track_vertex(ptr noundef captures(none) %0, i32 noundef %1, i32 noundef %2) local_unnamed_addr #2 {
  %4 = getelementptr inbounds nuw i8, ptr %0, i64 28
  %5 = load i32, ptr %4, align 4, !tbaa !58
  %6 = icmp sgt i32 %1, %5
  br i1 %6, label %10, label %7

7:                                                ; preds = %3
  %8 = getelementptr inbounds nuw i8, ptr %0, i64 4
  %9 = load i32, ptr %8, align 4, !tbaa !59
  %.not = icmp eq i32 %9, 0
  br i1 %.not, label %10, label %11

10:                                               ; preds = %7, %3
  store i32 %1, ptr %4, align 4, !tbaa !58
  br label %11

11:                                               ; preds = %10, %7
  %12 = getelementptr inbounds nuw i8, ptr %0, i64 36
  %13 = load i32, ptr %12, align 4, !tbaa !60
  %14 = icmp sgt i32 %2, %13
  br i1 %14, label %18, label %15

15:                                               ; preds = %11
  %16 = getelementptr inbounds nuw i8, ptr %0, i64 4
  %17 = load i32, ptr %16, align 4, !tbaa !59
  %.not20 = icmp eq i32 %17, 0
  br i1 %.not20, label %18, label %19

18:                                               ; preds = %15, %11
  store i32 %2, ptr %12, align 4, !tbaa !60
  br label %19

19:                                               ; preds = %18, %15
  %20 = getelementptr inbounds nuw i8, ptr %0, i64 24
  %21 = load i32, ptr %20, align 8, !tbaa !61
  %22 = icmp slt i32 %1, %21
  br i1 %22, label %26, label %23

23:                                               ; preds = %19
  %24 = getelementptr inbounds nuw i8, ptr %0, i64 4
  %25 = load i32, ptr %24, align 4, !tbaa !59
  %.not21 = icmp eq i32 %25, 0
  br i1 %.not21, label %26, label %27

26:                                               ; preds = %23, %19
  store i32 %1, ptr %20, align 8, !tbaa !61
  br label %27

27:                                               ; preds = %26, %23
  %28 = getelementptr inbounds nuw i8, ptr %0, i64 32
  %29 = load i32, ptr %28, align 8, !tbaa !62
  %30 = icmp slt i32 %2, %29
  br i1 %30, label %34, label %31

31:                                               ; preds = %27
  %32 = getelementptr inbounds nuw i8, ptr %0, i64 4
  %33 = load i32, ptr %32, align 4, !tbaa !59
  %.not22 = icmp eq i32 %33, 0
  br i1 %.not22, label %34, label %35

34:                                               ; preds = %31, %27
  store i32 %2, ptr %28, align 8, !tbaa !62
  br label %35

35:                                               ; preds = %34, %31
  %36 = getelementptr inbounds nuw i8, ptr %0, i64 4
  store i32 1, ptr %36, align 4, !tbaa !59
  ret void
}